target datalayout = "e-m:e-p270:32:32-p271:32:32-p272:64:64-i64:64-i128:128-f80:128-n8:16:32:64-S128"
target triple = "x86_64-pc-linux-gnu"

%struct.XDR = type { i32, ptr, ptr, ptr, ptr, i32 }

; Function Attrs: mustprogress uwtable
define internal noundef i32 @_ZL17xdrstdio_putbytesP3XDRPcj(ptr noundef %0, ptr noundef %1, i32 noundef %2) #0 {
  %4 = alloca i32, align 4
  %5 = alloca ptr, align 8
  %6 = alloca ptr, align 8
  %7 = alloca i32, align 4
  store ptr %0, ptr %5, align 8
  store ptr %1, ptr %6, align 8
  store i32 %2, ptr %7, align 4
  %8 = load i32, ptr %7, align 4
  %9 = icmp ne i32 %8, 0
  br i1 %9, label %10, label %20

10:                                               ; preds = %3
  %11 = load ptr, ptr %6, align 8
  %12 = load i32, ptr %7, align 4
  %13 = sext i32 %12 to i64
  %14 = load ptr, ptr %5, align 8
  %15 = getelementptr inbounds %struct.XDR, ptr %14, i32 0, i32 3
  %16 = load ptr, ptr %15, align 8
  %17 = call i64 @fwrite(ptr noundef %11, i64 noundef %13, i64 noundef 1, ptr noundef %16)
  %18 = icmp ne i64 %17, 1
  br i1 %18, label %19, label %20

19:                                               ; preds = %10
  store i32 0, ptr %4, align 4
  br label %21

20:                                               ; preds = %10, %3
  store i32 1, ptr %4, align 4
  br label %21

21:                                               ; preds = %20, %19
  %22 = load i32, ptr %4, align 4
  ret i32 %22
}